; Function Attrs: mustprogress uwtable
define void @_ZN11colvarparse18error_key_requiredERKNSt7__cxx1112basic_stringIcSt11char_traitsIcESaIcEEERKNS_10Parse_ModeE(ptr noundef nonnull align 8 dereferenceable(320) %0, ptr noundef nonnull align 8 dereferenceable(32) %1, ptr nocapture noundef nonnull readonly align 4 dereferenceable(4) %2) local_unnamed_addr #2 align 2 personality ptr @__gxx_personality_v0 {
  %4 = alloca %"class.std::__cxx11::basic_string", align 8
  %5 = alloca %"class.std::__cxx11::basic_string", align 8
  %6 = alloca %"class.std::__cxx11::basic_string", align 8
  %7 = alloca %"class.std::__cxx11::basic_string", align 8
  %8 = tail call noundef zeroext i1 @_ZN11colvarparse15key_already_setERKNSt7__cxx1112basic_stringIcSt11char_traitsIcESaIcEEE(ptr noundef nonnull align 8 dereferenceable(320) %0, ptr noundef nonnull align 8 dereferenceable(32) %1)
  br i1 %8, label %28, label %9

9:                                                ; preds = %3
  %10 = load i32, ptr %2, align 4
  %11 = and i32 %10, 262144
  %.not = icmp eq i32 %11, 0
  br i1 %.not, label %20, label %12

12:                                               ; preds = %9
  call void @_ZStplIcSt11char_traitsIcESaIcEENSt7__cxx1112basic_stringIT_T0_T1_EEPKS5_RKS8_(ptr dead_on_unwind nonnull writable sret(%"class.std::__cxx11::basic_string") align 8 %5, ptr noundef nonnull @.str.9, ptr noundef nonnull align 8 dereferenceable(32) %1)
  %13 = invoke noundef nonnull align 8 dereferenceable(32) ptr @_ZNSt7__cxx1112basic_stringIcSt11char_traitsIcESaIcEE6appendEPKc(ptr noundef nonnull align 8 dereferenceable(32) %5, ptr noundef nonnull @.str.10)
          to label %14 unwind label %16

14:                                               ; preds = %12
  call void @_ZNSt7__cxx1112basic_stringIcSt11char_traitsIcESaIcEEC1EOS4_(ptr noundef nonnull align 8 dereferenceable(32) %4, ptr noundef nonnull align 8 dereferenceable(32) %13) #15
  %15 = invoke noundef i32 @_ZN12colvarmodule5errorERKNSt7__cxx1112basic_stringIcSt11char_traitsIcESaIcEEEi(ptr noundef nonnull align 8 dereferenceable(32) %4, i32 noundef 4)
          to label %.sink.split unwind label %18

16:                                               ; preds = %12
  %17 = landingpad { ptr, i32 }
          cleanup
  br label %29

18:                                               ; preds = %14
  %19 = landingpad { ptr, i32 }
          cleanup
  call void @_ZNSt7__cxx1112basic_stringIcSt11char_traitsIcESaIcEED1Ev(ptr noundef nonnull align 8 dereferenceable(32) %4) #15
  br label %29

20:                                               ; preds = %9
  call void @_ZStplIcSt11char_traitsIcESaIcEENSt7__cxx1112basic_stringIT_T0_T1_EEPKS5_RKS8_(ptr dead_on_unwind nonnull writable sret(%"class.std::__cxx11::basic_string") align 8 %7, ptr noundef nonnull @.str.9, ptr noundef nonnull align 8 dereferenceable(32) %1)
  %21 = invoke noundef nonnull align 8 dereferenceable(32) ptr @_ZNSt7__cxx1112basic_stringIcSt11char_traitsIcESaIcEE6appendEPKc(ptr noundef nonnull align 8 dereferenceable(32) %7, ptr noundef nonnull @.str.11)
          to label %22 unwind label %24

22:                                               ; preds = %20
  call void @_ZNSt7__cxx1112basic_stringIcSt11char_traitsIcESaIcEEC1EOS4_(ptr noundef nonnull align 8 dereferenceable(32) %6, ptr noundef nonnull align 8 dereferenceable(32) %21) #15
  %23 = invoke noundef i32 @_ZN12colvarmodule5errorERKNSt7__cxx1112basic_stringIcSt11char_traitsIcESaIcEEEi(ptr noundef nonnull align 8 dereferenceable(32) %6, i32 noundef 4)
          to label %.sink.split unwind label %26

24:                                               ; preds = %20
  %25 = landingpad { ptr, i32 }
          cleanup
  br label %29

26:                                               ; preds = %22
  %27 = landingpad { ptr, i32 }
          cleanup
  call void @_ZNSt7__cxx1112basic_stringIcSt11char_traitsIcESaIcEED1Ev(ptr noundef nonnull align 8 dereferenceable(32) %6) #15
  br label %29

.sink.split:                                      ; preds = %22, %14
  %.sink14 = phi ptr [ %4, %14 ], [ %6, %22 ]
  %.sink = phi ptr [ %5, %14 ], [ %7, %22 ]
  call void @_ZNSt7__cxx1112basic_stringIcSt11char_traitsIcESaIcEED1Ev(ptr noundef nonnull align 8 dereferenceable(32) %.sink14) #15
  call void @_ZNSt7__cxx1112basic_stringIcSt11char_traitsIcESaIcEED1Ev(ptr noundef nonnull align 8 dereferenceable(32) %.sink) #15
  br label %28

28:                                               ; preds = %.sink.split, %3
  ret void

29:                                               ; preds = %24, %26, %16, %18
  %.sink15 = phi ptr [ %5, %18 ], [ %5, %16 ], [ %7, %26 ], [ %7, %24 ]
  %.pn10.pn = phi { ptr, i32 } [ %19, %18 ], [ %17, %16 ], [ %27, %26 ], [ %25, %24 ]
  call void @_ZNSt7__cxx1112basic_stringIcSt11char_traitsIcESaIcEED1Ev(ptr noundef nonnull align 8 dereferenceable(32) %.sink15) #15
  resume { ptr, i32 } %.pn10.pn
}